target datalayout = "e-m:e-p270:32:32-p271:32:32-p272:64:64-i64:64-i128:128-f80:128-n8:16:32:64-S128"
target triple = "x86_64-pc-linux-gnu"

%struct.psset_s = type { [64 x %struct.hpdata_age_heap_t], [1 x i64], %struct.psset_stats_s, %struct.hpdata_empty_list_t, [128 x %struct.hpdata_purge_list_t], [2 x i64], %struct.hpdata_hugify_list_t }
%struct.hpdata_age_heap_t = type { %struct.ph_s }
%struct.ph_s = type { ptr, i64 }
%struct.psset_stats_s = type { %struct.psset_bin_stats_s, [2 x %struct.psset_bin_stats_s], [64 x [2 x %struct.psset_bin_stats_s]], [2 x %struct.psset_bin_stats_s], [2 x %struct.psset_bin_stats_s] }
%struct.psset_bin_stats_s = type { i64, i64, i64 }
%struct.hpdata_empty_list_t = type { %struct.anon }
%struct.anon = type { ptr }
%struct.hpdata_purge_list_t = type { %struct.anon.0 }
%struct.anon.0 = type { ptr }
%struct.hpdata_hugify_list_t = type { %struct.anon.1 }
%struct.anon.1 = type { ptr }
%struct.hpdata_s = type { ptr, i64, i8, i8, i8, i8, i8, %struct.nstime_t, i8, i8, i8, i8, i8, %union.anon, %struct.anon.3, %struct.anon.4, i64, i64, [8 x i64], i64, [8 x i64] }
%struct.nstime_t = type { i64 }
%union.anon = type { %struct.hpdata_age_heap_link_t }
%struct.hpdata_age_heap_link_t = type { %struct.phn_link_s }
%struct.phn_link_s = type { ptr, ptr, ptr }
%struct.anon.3 = type { ptr, ptr }
%struct.anon.4 = type { ptr, ptr }
%struct.anon.2 = type { ptr, ptr }

; Function Attrs: inlinehint nounwind uwtable
define internal i32 @fls_lu(i64 noundef %0) #3 {
  %2 = alloca i64, align 8
  store i64 %0, ptr %2, align 8, !tbaa !16
  %3 = load i64, ptr %2, align 8, !tbaa !16
  %4 = icmp ne i64 %3, 0
  call void @llvm.assume(i1 %4)
  %5 = load i64, ptr %2, align 8, !tbaa !16
  %6 = call i64 @llvm.ctlz.i64(i64 %5, i1 true)
  %7 = trunc i64 %6 to i32
  %8 = sext i32 %7 to i64
  %9 = xor i64 63, %8
  %10 = trunc i64 %9 to i32
  ret i32 %10
}

; Function Attrs: inlinehint nounwind uwtable
define internal i32 @fls_u64(i64 noundef %0) #3 {
  %2 = alloca i64, align 8
  store i64 %0, ptr %2, align 8, !tbaa !16
  %3 = load i64, ptr %2, align 8, !tbaa !16
  %4 = call i32 @fls_lu(i64 noundef %3)
  ret i32 %4
}

; Function Attrs: inlinehint nounwind uwtable
define internal i32 @lg_floor(i64 noundef %0) #3 {
  %2 = alloca i64, align 8
  store i64 %0, ptr %2, align 8, !tbaa !16
  %3 = load i64, ptr %2, align 8, !tbaa !16
  %4 = icmp ne i64 %3, 0
  call void @llvm.assume(i1 %4)
  %5 = load i64, ptr %2, align 8, !tbaa !16
  %6 = call i32 @fls_u64(i64 noundef %5)
  ret i32 %6
}

; Function Attrs: inlinehint nounwind uwtable
define internal i32 @lg_ceil(i64 noundef %0) #3 {
  %2 = alloca i64, align 8
  store i64 %0, ptr %2, align 8, !tbaa !16
  %3 = load i64, ptr %2, align 8, !tbaa !16
  %4 = call i32 @lg_floor(i64 noundef %3)
  %5 = load i64, ptr %2, align 8, !tbaa !16
  %6 = load i64, ptr %2, align 8, !tbaa !16
  %7 = sub i64 %6, 1
  %8 = and i64 %5, %7
  %9 = icmp eq i64 %8, 0
  %10 = select i1 %9, i32 0, i32 1
  %11 = add i32 %4, %10
  ret i32 %11
}

; Function Attrs: alwaysinline nounwind uwtable
define internal i32 @sz_psz2ind(i64 noundef %0) #5 {
  %2 = alloca i32, align 4
  %3 = alloca i64, align 8
  %4 = alloca i32, align 4
  %5 = alloca i32, align 4
  %6 = alloca i32, align 4
  %7 = alloca i32, align 4
  %8 = alloca i32, align 4
  %9 = alloca i32, align 4
  store i64 %0, ptr %3, align 8, !tbaa !16
  br label %10

10:                                               ; preds = %1
  br label %11

11:                                               ; preds = %10
  %12 = load i64, ptr %3, align 8, !tbaa !16
  %13 = icmp ugt i64 %12, 8070450532247928832
  %14 = xor i1 %13, true
  %15 = xor i1 %14, true
  %16 = zext i1 %15 to i32
  %17 = sext i32 %16 to i64
  %18 = call i64 @llvm.expect.i64(i64 %17, i64 0)
  %19 = icmp ne i64 %18, 0
  br i1 %19, label %20, label %21

20:                                               ; preds = %11
  store i32 199, ptr %2, align 4
  br label %54

21:                                               ; preds = %11
  call void @llvm.lifetime.start.p0(i64 4, ptr %4) #9
  %22 = load i64, ptr %3, align 8, !tbaa !16
  %23 = call i32 @lg_ceil(i64 noundef %22)
  store i32 %23, ptr %4, align 4, !tbaa !9
  call void @llvm.lifetime.start.p0(i64 4, ptr %5) #9
  %24 = load i32, ptr %4, align 4, !tbaa !9
  %25 = icmp ult i32 %24, 14
  br i1 %25, label %26, label %27

26:                                               ; preds = %21
  br label %30

27:                                               ; preds = %21
  %28 = load i32, ptr %4, align 4, !tbaa !9
  %29 = sub i32 %28, 14
  br label %30

30:                                               ; preds = %27, %26
  %31 = phi i32 [ 0, %26 ], [ %29, %27 ]
  store i32 %31, ptr %5, align 4, !tbaa !9
  call void @llvm.lifetime.start.p0(i64 4, ptr %6) #9
  %32 = load i32, ptr %5, align 4, !tbaa !9
  %33 = icmp eq i32 %32, 0
  br i1 %33, label %34, label %35

34:                                               ; preds = %30
  br label %39

35:                                               ; preds = %30
  %36 = load i32, ptr %5, align 4, !tbaa !9
  %37 = sub i32 %36, 1
  %38 = add i32 12, %37
  br label %39

39:                                               ; preds = %35, %34
  %40 = phi i32 [ 12, %34 ], [ %38, %35 ]
  store i32 %40, ptr %6, align 4, !tbaa !9
  call void @llvm.lifetime.start.p0(i64 4, ptr %7) #9
  %41 = load i64, ptr %3, align 8, !tbaa !16
  %42 = sub i64 %41, 1
  %43 = load i32, ptr %6, align 4, !tbaa !9
  %44 = zext i32 %43 to i64
  %45 = lshr i64 %42, %44
  %46 = and i64 %45, 3
  %47 = trunc i64 %46 to i32
  store i32 %47, ptr %7, align 4, !tbaa !9
  call void @llvm.lifetime.start.p0(i64 4, ptr %8) #9
  %48 = load i32, ptr %5, align 4, !tbaa !9
  %49 = shl i32 %48, 2
  store i32 %49, ptr %8, align 4, !tbaa !9
  call void @llvm.lifetime.start.p0(i64 4, ptr %9) #9
  %50 = load i32, ptr %8, align 4, !tbaa !9
  %51 = load i32, ptr %7, align 4, !tbaa !9
  %52 = add i32 %50, %51
  store i32 %52, ptr %9, align 4, !tbaa !9
  %53 = load i32, ptr %9, align 4, !tbaa !9
  store i32 %53, ptr %2, align 4
  call void @llvm.lifetime.end.p0(i64 4, ptr %9) #9
  call void @llvm.lifetime.end.p0(i64 4, ptr %8) #9
  call void @llvm.lifetime.end.p0(i64 4, ptr %7) #9
  call void @llvm.lifetime.end.p0(i64 4, ptr %6) #9
  call void @llvm.lifetime.end.p0(i64 4, ptr %5) #9
  call void @llvm.lifetime.end.p0(i64 4, ptr %4) #9
  br label %54

54:                                               ; preds = %39, %20
  %55 = load i32, ptr %2, align 4
  ret i32 %55
}

; Function Attrs: inlinehint nounwind uwtable
define internal i64 @hpdata_longest_free_range_get(ptr noundef %0) #3 {
  %2 = alloca ptr, align 8
  store ptr %0, ptr %2, align 8, !tbaa !33
  %3 = load ptr, ptr %2, align 8, !tbaa !33
  %4 = getelementptr inbounds nuw %struct.hpdata_s, ptr %3, i32 0, i32 16
  %5 = load i64, ptr %4, align 8, !tbaa !56
  ret i64 %5
}

; Function Attrs: inlinehint nounwind uwtable
define internal void @fb_unset(ptr noundef %0, i64 noundef %1, i64 noundef %2) #3 {
  %4 = alloca ptr, align 8
  %5 = alloca i64, align 8
  %6 = alloca i64, align 8
  %7 = alloca i64, align 8
  %8 = alloca i64, align 8
  store ptr %0, ptr %4, align 8, !tbaa !14
  store i64 %1, ptr %5, align 8, !tbaa !16
  store i64 %2, ptr %6, align 8, !tbaa !16
  br label %9

9:                                                ; preds = %3
  br label %10

10:                                               ; preds = %9
  call void @llvm.lifetime.start.p0(i64 8, ptr %7) #9
  %11 = load i64, ptr %6, align 8, !tbaa !16
  %12 = udiv i64 %11, 64
  store i64 %12, ptr %7, align 8, !tbaa !16
  call void @llvm.lifetime.start.p0(i64 8, ptr %8) #9
  %13 = load i64, ptr %6, align 8, !tbaa !16
  %14 = urem i64 %13, 64
  store i64 %14, ptr %8, align 8, !tbaa !16
  %15 = load i64, ptr %8, align 8, !tbaa !16
  %16 = shl i64 1, %15
  %17 = xor i64 %16, -1
  %18 = load ptr, ptr %4, align 8, !tbaa !14
  %19 = load i64, ptr %7, align 8, !tbaa !16
  %20 = getelementptr inbounds nuw i64, ptr %18, i64 %19
  %21 = load i64, ptr %20, align 8, !tbaa !16
  %22 = and i64 %21, %17
  store i64 %22, ptr %20, align 8, !tbaa !16
  call void @llvm.lifetime.end.p0(i64 8, ptr %8) #9
  call void @llvm.lifetime.end.p0(i64 8, ptr %7) #9
  ret void
}

; Function Attrs: nounwind uwtable
define internal i32 @psset_hpdata_heap_index(ptr noundef %0) #0 {
  %2 = alloca ptr, align 8
  %3 = alloca i64, align 8
  %4 = alloca i32, align 4
  store ptr %0, ptr %2, align 8, !tbaa !33
  br label %5

5:                                                ; preds = %1
  br label %6

6:                                                ; preds = %5
  br label %7

7:                                                ; preds = %6
  br label %8

8:                                                ; preds = %7
  call void @llvm.lifetime.start.p0(i64 8, ptr %3) #9
  %9 = load ptr, ptr %2, align 8, !tbaa !33
  %10 = call i64 @hpdata_longest_free_range_get(ptr noundef %9)
  store i64 %10, ptr %3, align 8, !tbaa !16
  call void @llvm.lifetime.start.p0(i64 4, ptr %4) #9
  %11 = load i64, ptr %3, align 8, !tbaa !16
  %12 = shl i64 %11, 12
  %13 = call i64 @je_sz_psz_quantize_floor(i64 noundef %12)
  %14 = call i32 @sz_psz2ind(i64 noundef %13)
  store i32 %14, ptr %4, align 4, !tbaa !9
  br label %15

15:                                               ; preds = %8
  br label %16

16:                                               ; preds = %15
  br label %17

17:                                               ; preds = %16
  %18 = load i32, ptr %4, align 4, !tbaa !9
  call void @llvm.lifetime.end.p0(i64 4, ptr %4) #9
  call void @llvm.lifetime.end.p0(i64 8, ptr %3) #9
  ret i32 %18
}

; Function Attrs: nounwind uwtable
define internal void @psset_hpdata_heap_remove(ptr noundef %0, ptr noundef %1) #0 {
  %3 = alloca ptr, align 8
  %4 = alloca ptr, align 8
  %5 = alloca i32, align 4
  store ptr %0, ptr %3, align 8, !tbaa !4
  store ptr %1, ptr %4, align 8, !tbaa !33
  call void @llvm.lifetime.start.p0(i64 4, ptr %5) #9
  %6 = load ptr, ptr %4, align 8, !tbaa !33
  %7 = call i32 @psset_hpdata_heap_index(ptr noundef %6)
  store i32 %7, ptr %5, align 4, !tbaa !9
  %8 = load ptr, ptr %3, align 8, !tbaa !4
  %9 = getelementptr inbounds nuw %struct.psset_s, ptr %8, i32 0, i32 0
  %10 = load i32, ptr %5, align 4, !tbaa !9
  %11 = zext i32 %10 to i64
  %12 = getelementptr inbounds nuw [64 x %struct.hpdata_age_heap_t], ptr %9, i64 0, i64 %11
  %13 = load ptr, ptr %4, align 8, !tbaa !33
  call void @je_hpdata_age_heap_remove(ptr noundef %12, ptr noundef %13)
  %14 = load ptr, ptr %3, align 8, !tbaa !4
  %15 = getelementptr inbounds nuw %struct.psset_s, ptr %14, i32 0, i32 0
  %16 = load i32, ptr %5, align 4, !tbaa !9
  %17 = zext i32 %16 to i64
  %18 = getelementptr inbounds nuw [64 x %struct.hpdata_age_heap_t], ptr %15, i64 0, i64 %17
  %19 = call zeroext i1 @je_hpdata_age_heap_empty(ptr noundef %18)
  br i1 %19, label %20, label %26

20:                                               ; preds = %2
  %21 = load ptr, ptr %3, align 8, !tbaa !4
  %22 = getelementptr inbounds nuw %struct.psset_s, ptr %21, i32 0, i32 1
  %23 = getelementptr inbounds [1 x i64], ptr %22, i64 0, i64 0
  %24 = load i32, ptr %5, align 4, !tbaa !9
  %25 = zext i32 %24 to i64
  call void @fb_unset(ptr noundef %23, i64 noundef 64, i64 noundef %25)
  br label %26

26:                                               ; preds = %20, %2
  call void @llvm.lifetime.end.p0(i64 4, ptr %5) #9
  ret void
}

; Function Attrs: inlinehint nounwind uwtable
define internal zeroext i1 @hpdata_full(ptr noundef %0) #3 {
  %2 = alloca ptr, align 8
  store ptr %0, ptr %2, align 8, !tbaa !33
  %3 = load ptr, ptr %2, align 8, !tbaa !33
  %4 = getelementptr inbounds nuw %struct.hpdata_s, ptr %3, i32 0, i32 17
  %5 = load i64, ptr %4, align 8, !tbaa !49
  %6 = icmp eq i64 %5, 512
  ret i1 %6
}

; Function Attrs: inlinehint nounwind uwtable
define internal void @hpdata_empty_list_remove(ptr noundef %0, ptr noundef %1) #3 {
  %3 = alloca ptr, align 8
  %4 = alloca ptr, align 8
  store ptr %0, ptr %3, align 8, !tbaa !18
  store ptr %1, ptr %4, align 8, !tbaa !33
  br label %5

5:                                                ; preds = %2
  %6 = load ptr, ptr %3, align 8, !tbaa !18
  %7 = getelementptr inbounds nuw %struct.hpdata_empty_list_t, ptr %6, i32 0, i32 0
  %8 = getelementptr inbounds nuw %struct.anon, ptr %7, i32 0, i32 0
  %9 = load ptr, ptr %8, align 8, !tbaa !19
  %10 = load ptr, ptr %4, align 8, !tbaa !33
  %11 = icmp eq ptr %9, %10
  br i1 %11, label %12, label %23

12:                                               ; preds = %5
  %13 = load ptr, ptr %3, align 8, !tbaa !18
  %14 = getelementptr inbounds nuw %struct.hpdata_empty_list_t, ptr %13, i32 0, i32 0
  %15 = getelementptr inbounds nuw %struct.anon, ptr %14, i32 0, i32 0
  %16 = load ptr, ptr %15, align 8, !tbaa !19
  %17 = getelementptr inbounds nuw %struct.hpdata_s, ptr %16, i32 0, i32 13
  %18 = getelementptr inbounds nuw %struct.anon.2, ptr %17, i32 0, i32 0
  %19 = load ptr, ptr %18, align 8, !tbaa !57
  %20 = load ptr, ptr %3, align 8, !tbaa !18
  %21 = getelementptr inbounds nuw %struct.hpdata_empty_list_t, ptr %20, i32 0, i32 0
  %22 = getelementptr inbounds nuw %struct.anon, ptr %21, i32 0, i32 0
  store ptr %19, ptr %22, align 8, !tbaa !19
  br label %23

23:                                               ; preds = %12, %5
  %24 = load ptr, ptr %3, align 8, !tbaa !18
  %25 = getelementptr inbounds nuw %struct.hpdata_empty_list_t, ptr %24, i32 0, i32 0
  %26 = getelementptr inbounds nuw %struct.anon, ptr %25, i32 0, i32 0
  %27 = load ptr, ptr %26, align 8, !tbaa !19
  %28 = load ptr, ptr %4, align 8, !tbaa !33
  %29 = icmp ne ptr %27, %28
  br i1 %29, label %30, label %86

30:                                               ; preds = %23
  br label %31

31:                                               ; preds = %30
  %32 = load ptr, ptr %4, align 8, !tbaa !33
  %33 = getelementptr inbounds nuw %struct.hpdata_s, ptr %32, i32 0, i32 13
  %34 = getelementptr inbounds nuw %struct.anon.2, ptr %33, i32 0, i32 0
  %35 = load ptr, ptr %34, align 8, !tbaa !57
  %36 = getelementptr inbounds nuw %struct.hpdata_s, ptr %35, i32 0, i32 13
  %37 = getelementptr inbounds nuw %struct.anon.2, ptr %36, i32 0, i32 1
  %38 = load ptr, ptr %37, align 8, !tbaa !57
  %39 = load ptr, ptr %4, align 8, !tbaa !33
  %40 = getelementptr inbounds nuw %struct.hpdata_s, ptr %39, i32 0, i32 13
  %41 = getelementptr inbounds nuw %struct.anon.2, ptr %40, i32 0, i32 1
  %42 = load ptr, ptr %41, align 8, !tbaa !57
  %43 = getelementptr inbounds nuw %struct.hpdata_s, ptr %42, i32 0, i32 13
  %44 = getelementptr inbounds nuw %struct.anon.2, ptr %43, i32 0, i32 0
  store ptr %38, ptr %44, align 8, !tbaa !57
  %45 = load ptr, ptr %4, align 8, !tbaa !33
  %46 = getelementptr inbounds nuw %struct.hpdata_s, ptr %45, i32 0, i32 13
  %47 = getelementptr inbounds nuw %struct.anon.2, ptr %46, i32 0, i32 1
  %48 = load ptr, ptr %47, align 8, !tbaa !57
  %49 = load ptr, ptr %4, align 8, !tbaa !33
  %50 = getelementptr inbounds nuw %struct.hpdata_s, ptr %49, i32 0, i32 13
  %51 = getelementptr inbounds nuw %struct.anon.2, ptr %50, i32 0, i32 0
  %52 = load ptr, ptr %51, align 8, !tbaa !57
  %53 = getelementptr inbounds nuw %struct.hpdata_s, ptr %52, i32 0, i32 13
  %54 = getelementptr inbounds nuw %struct.anon.2, ptr %53, i32 0, i32 1
  store ptr %48, ptr %54, align 8, !tbaa !57
  %55 = load ptr, ptr %4, align 8, !tbaa !33
  %56 = getelementptr inbounds nuw %struct.hpdata_s, ptr %55, i32 0, i32 13
  %57 = getelementptr inbounds nuw %struct.anon.2, ptr %56, i32 0, i32 1
  %58 = load ptr, ptr %57, align 8, !tbaa !57
  %59 = getelementptr inbounds nuw %struct.hpdata_s, ptr %58, i32 0, i32 13
  %60 = getelementptr inbounds nuw %struct.anon.2, ptr %59, i32 0, i32 0
  %61 = load ptr, ptr %60, align 8, !tbaa !57
  %62 = load ptr, ptr %4, align 8, !tbaa !33
  %63 = getelementptr inbounds nuw %struct.hpdata_s, ptr %62, i32 0, i32 13
  %64 = getelementptr inbounds nuw %struct.anon.2, ptr %63, i32 0, i32 1
  store ptr %61, ptr %64, align 8, !tbaa !57
  %65 = load ptr, ptr %4, align 8, !tbaa !33
  %66 = getelementptr inbounds nuw %struct.hpdata_s, ptr %65, i32 0, i32 13
  %67 = getelementptr inbounds nuw %struct.anon.2, ptr %66, i32 0, i32 0
  %68 = load ptr, ptr %67, align 8, !tbaa !57
  %69 = load ptr, ptr %4, align 8, !tbaa !33
  %70 = getelementptr inbounds nuw %struct.hpdata_s, ptr %69, i32 0, i32 13
  %71 = getelementptr inbounds nuw %struct.anon.2, ptr %70, i32 0, i32 0
  %72 = load ptr, ptr %71, align 8, !tbaa !57
  %73 = getelementptr inbounds nuw %struct.hpdata_s, ptr %72, i32 0, i32 13
  %74 = getelementptr inbounds nuw %struct.anon.2, ptr %73, i32 0, i32 1
  %75 = load ptr, ptr %74, align 8, !tbaa !57
  %76 = getelementptr inbounds nuw %struct.hpdata_s, ptr %75, i32 0, i32 13
  %77 = getelementptr inbounds nuw %struct.anon.2, ptr %76, i32 0, i32 0
  store ptr %68, ptr %77, align 8, !tbaa !57
  %78 = load ptr, ptr %4, align 8, !tbaa !33
  %79 = load ptr, ptr %4, align 8, !tbaa !33
  %80 = getelementptr inbounds nuw %struct.hpdata_s, ptr %79, i32 0, i32 13
  %81 = getelementptr inbounds nuw %struct.anon.2, ptr %80, i32 0, i32 1
  %82 = load ptr, ptr %81, align 8, !tbaa !57
  %83 = getelementptr inbounds nuw %struct.hpdata_s, ptr %82, i32 0, i32 13
  %84 = getelementptr inbounds nuw %struct.anon.2, ptr %83, i32 0, i32 0
  store ptr %78, ptr %84, align 8, !tbaa !57
  br label %85

85:                                               ; preds = %31
  br label %92

86:                                               ; preds = %23
  br label %87

87:                                               ; preds = %86
  %88 = load ptr, ptr %3, align 8, !tbaa !18
  %89 = getelementptr inbounds nuw %struct.hpdata_empty_list_t, ptr %88, i32 0, i32 0
  %90 = getelementptr inbounds nuw %struct.anon, ptr %89, i32 0, i32 0
  store ptr null, ptr %90, align 8, !tbaa !19
  br label %91

91:                                               ; preds = %87
  br label %92

92:                                               ; preds = %91, %85
  br label %93

93:                                               ; preds = %92
  ret void
}

; Function Attrs: inlinehint nounwind uwtable
define internal zeroext i1 @hpdata_empty(ptr noundef %0) #3 {
  %2 = alloca ptr, align 8
  store ptr %0, ptr %2, align 8, !tbaa !33
  %3 = load ptr, ptr %2, align 8, !tbaa !33
  %4 = getelementptr inbounds nuw %struct.hpdata_s, ptr %3, i32 0, i32 17
  %5 = load i64, ptr %4, align 8, !tbaa !49
  %6 = icmp eq i64 %5, 0
  ret i1 %6
}

; Function Attrs: inlinehint nounwind uwtable
define internal void @hpdata_in_psset_alloc_container_set(ptr noundef %0, i1 noundef zeroext %1) #3 {
  %3 = alloca ptr, align 8
  %4 = alloca i8, align 1
  store ptr %0, ptr %3, align 8, !tbaa !33
  %5 = zext i1 %1 to i8
  store i8 %5, ptr %4, align 1, !tbaa !34
  br label %6

6:                                                ; preds = %2
  br label %7

7:                                                ; preds = %6
  %8 = load i8, ptr %4, align 1, !tbaa !34, !range !36, !noundef !37
  %9 = trunc i8 %8 to i1
  %10 = load ptr, ptr %3, align 8, !tbaa !33
  %11 = getelementptr inbounds nuw %struct.hpdata_s, ptr %10, i32 0, i32 4
  %12 = zext i1 %9 to i8
  store i8 %12, ptr %11, align 2, !tbaa !42
  ret void
}

; Function Attrs: nounwind uwtable
define internal void @psset_alloc_container_remove(ptr noundef %0, ptr noundef %1) #0 {
  %3 = alloca ptr, align 8
  %4 = alloca ptr, align 8
  store ptr %0, ptr %3, align 8, !tbaa !4
  store ptr %1, ptr %4, align 8, !tbaa !33
  br label %5

5:                                                ; preds = %2
  br label %6

6:                                                ; preds = %5
  %7 = load ptr, ptr %4, align 8, !tbaa !33
  call void @hpdata_in_psset_alloc_container_set(ptr noundef %7, i1 noundef zeroext false)
  %8 = load ptr, ptr %4, align 8, !tbaa !33
  %9 = call zeroext i1 @hpdata_empty(ptr noundef %8)
  br i1 %9, label %10, label %14

10:                                               ; preds = %6
  %11 = load ptr, ptr %3, align 8, !tbaa !4
  %12 = getelementptr inbounds nuw %struct.psset_s, ptr %11, i32 0, i32 3
  %13 = load ptr, ptr %4, align 8, !tbaa !33
  call void @hpdata_empty_list_remove(ptr noundef %12, ptr noundef %13)
  br label %22

14:                                               ; preds = %6
  %15 = load ptr, ptr %4, align 8, !tbaa !33
  %16 = call zeroext i1 @hpdata_full(ptr noundef %15)
  br i1 %16, label %17, label %18

17:                                               ; preds = %14
  br label %21

18:                                               ; preds = %14
  %19 = load ptr, ptr %3, align 8, !tbaa !4
  %20 = load ptr, ptr %4, align 8, !tbaa !33
  call void @psset_hpdata_heap_remove(ptr noundef %19, ptr noundef %20)
  br label %21

21:                                               ; preds = %18, %17
  br label %22

22:                                               ; preds = %21, %10
  ret void
}